target datalayout = "e-m:e-p270:32:32-p271:32:32-p272:64:64-i64:64-i128:128-f80:128-n8:16:32:64-S128"
target triple = "x86_64-pc-linux-gnu"

%"class.cv::Size_" = type { i32, i32 }

; Function Attrs: alwaysinline mustprogress nounwind uwtable
define internal noundef i32 @_ZL14_mm_cvtss_si32Dv4_f(<4 x float> noundef %0) #12 {
  %2 = alloca <4 x float>, align 16
  store <4 x float> %0, ptr %2, align 16, !tbaa !73
  %3 = load <4 x float>, ptr %2, align 16, !tbaa !73
  %4 = call i32 @llvm.x86.sse.cvtss2si(<4 x float> %3)
  ret i32 %4
}

; Function Attrs: alwaysinline mustprogress nounwind uwtable
define internal noundef <4 x float> @_ZL10_mm_set_ssf(float noundef %0) #12 {
  %2 = alloca float, align 4
  %3 = alloca <4 x float>, align 16
  store float %0, ptr %2, align 4, !tbaa !71
  %4 = load float, ptr %2, align 4, !tbaa !71
  %5 = insertelement <4 x float> poison, float %4, i32 0
  %6 = insertelement <4 x float> %5, float 0.000000e+00, i32 1
  %7 = insertelement <4 x float> %6, float 0.000000e+00, i32 2
  %8 = insertelement <4 x float> %7, float 0.000000e+00, i32 3
  store <4 x float> %8, ptr %3, align 16, !tbaa !73
  %9 = load <4 x float>, ptr %3, align 16, !tbaa !73
  ret <4 x float> %9
}

; Function Attrs: inlinehint mustprogress nounwind uwtable
define internal noundef zeroext i16 @_ZN2cvL13saturate_castItEET_i(i32 noundef %0) #4 {
  %2 = alloca i32, align 4
  store i32 %0, ptr %2, align 4, !tbaa !3
  %3 = load i32, ptr %2, align 4, !tbaa !3
  %4 = icmp ule i32 %3, 65535
  br i1 %4, label %5, label %7

5:                                                ; preds = %1
  %6 = load i32, ptr %2, align 4, !tbaa !3
  br label %11

7:                                                ; preds = %1
  %8 = load i32, ptr %2, align 4, !tbaa !3
  %9 = icmp sgt i32 %8, 0
  %10 = select i1 %9, i32 65535, i32 0
  br label %11

11:                                               ; preds = %7, %5
  %12 = phi i32 [ %6, %5 ], [ %10, %7 ]
  %13 = trunc i32 %12 to i16
  ret i16 %13
}

; Function Attrs: inlinehint mustprogress uwtable
define internal noundef i32 @_ZL7cvRoundf(float noundef %0) #11 {
  %2 = alloca float, align 4
  %3 = alloca <4 x float>, align 16
  store float %0, ptr %2, align 4, !tbaa !71
  call void @llvm.lifetime.start.p0(i64 16, ptr %3) #17
  %4 = load float, ptr %2, align 4, !tbaa !71
  %5 = call noundef <4 x float> @_ZL10_mm_set_ssf(float noundef %4)
  store <4 x float> %5, ptr %3, align 16, !tbaa !73
  %6 = load <4 x float>, ptr %3, align 16, !tbaa !73
  %7 = call noundef i32 @_ZL14_mm_cvtss_si32Dv4_f(<4 x float> noundef %6)
  call void @llvm.lifetime.end.p0(i64 16, ptr %3) #17
  ret i32 %7
}

; Function Attrs: inlinehint mustprogress uwtable
define internal noundef zeroext i16 @_ZN2cvL13saturate_castItEET_f(float noundef %0) #5 {
  %2 = alloca float, align 4
  %3 = alloca i32, align 4
  store float %0, ptr %2, align 4, !tbaa !71
  call void @llvm.lifetime.start.p0(i64 4, ptr %3) #17
  %4 = load float, ptr %2, align 4, !tbaa !71
  %5 = call noundef i32 @_ZL7cvRoundf(float noundef %4)
  store i32 %5, ptr %3, align 4, !tbaa !3
  %6 = load i32, ptr %3, align 4, !tbaa !3
  %7 = call noundef zeroext i16 @_ZN2cvL13saturate_castItEET_i(i32 noundef %6)
  call void @llvm.lifetime.end.p0(i64 4, ptr %3) #17
  ret i16 %7
}

; Function Attrs: inlinehint mustprogress uwtable
define linkonce_odr hidden void @_ZN2cv12cpu_baseline7cvt_32fIatEEvPKT_mPT0_mNS_5Size_IiEEff(ptr noundef %0, i64 noundef %1, ptr noundef %2, i64 noundef %3, i64 %4, float noundef %5, float noundef %6) #5 comdat {
  %8 = alloca %"class.cv::Size_", align 4
  %9 = alloca ptr, align 8
  %10 = alloca i64, align 8
  %11 = alloca ptr, align 8
  %12 = alloca i64, align 8
  %13 = alloca float, align 4
  %14 = alloca float, align 4
  %15 = alloca i32, align 4
  %16 = alloca i32, align 4
  store i64 %4, ptr %8, align 4
  store ptr %0, ptr %9, align 8, !tbaa !9
  store i64 %1, ptr %10, align 8, !tbaa !11
  store ptr %2, ptr %11, align 8, !tbaa !18
  store i64 %3, ptr %12, align 8, !tbaa !11
  store float %5, ptr %13, align 4, !tbaa !71
  store float %6, ptr %14, align 4, !tbaa !71
  %17 = load i64, ptr %10, align 8, !tbaa !11
  %18 = udiv i64 %17, 1
  store i64 %18, ptr %10, align 8, !tbaa !11
  %19 = load i64, ptr %12, align 8, !tbaa !11
  %20 = udiv i64 %19, 2
  store i64 %20, ptr %12, align 8, !tbaa !11
  call void @llvm.lifetime.start.p0(i64 4, ptr %15) #17
  store i32 0, ptr %15, align 4, !tbaa !3
  br label %21

21:                                               ; preds = %53, %7
  %22 = load i32, ptr %15, align 4, !tbaa !3
  %23 = getelementptr inbounds nuw %"class.cv::Size_", ptr %8, i32 0, i32 1
  %24 = load i32, ptr %23, align 4, !tbaa !70
  %25 = icmp slt i32 %22, %24
  br i1 %25, label %27, label %26

26:                                               ; preds = %21
  call void @llvm.lifetime.end.p0(i64 4, ptr %15) #17
  br label %62

27:                                               ; preds = %21
  call void @llvm.lifetime.start.p0(i64 4, ptr %16) #17
  store i32 0, ptr %16, align 4, !tbaa !3
  br label %28

28:                                               ; preds = %49, %27
  %29 = load i32, ptr %16, align 4, !tbaa !3
  %30 = getelementptr inbounds nuw %"class.cv::Size_", ptr %8, i32 0, i32 0
  %31 = load i32, ptr %30, align 4, !tbaa !69
  %32 = icmp slt i32 %29, %31
  br i1 %32, label %33, label %52

33:                                               ; preds = %28
  %34 = load ptr, ptr %9, align 8, !tbaa !9
  %35 = load i32, ptr %16, align 4, !tbaa !3
  %36 = sext i32 %35 to i64
  %37 = getelementptr inbounds i8, ptr %34, i64 %36
  %38 = load i8, ptr %37, align 1, !tbaa !73
  %39 = sext i8 %38 to i32
  %40 = sitofp i32 %39 to float
  %41 = load float, ptr %13, align 4, !tbaa !71
  %42 = load float, ptr %14, align 4, !tbaa !71
  %43 = call float @llvm.fmuladd.f32(float %40, float %41, float %42)
  %44 = call noundef zeroext i16 @_ZN2cvL13saturate_castItEET_f(float noundef %43)
  %45 = load ptr, ptr %11, align 8, !tbaa !18
  %46 = load i32, ptr %16, align 4, !tbaa !3
  %47 = sext i32 %46 to i64
  %48 = getelementptr inbounds i16, ptr %45, i64 %47
  store i16 %44, ptr %48, align 2, !tbaa !78
  br label %49

49:                                               ; preds = %33
  %50 = load i32, ptr %16, align 4, !tbaa !3
  %51 = add nsw i32 %50, 1
  store i32 %51, ptr %16, align 4, !tbaa !3
  br label %28, !llvm.loop !126

52:                                               ; preds = %28
  call void @llvm.lifetime.end.p0(i64 4, ptr %16) #17
  br label %53

53:                                               ; preds = %52
  %54 = load i32, ptr %15, align 4, !tbaa !3
  %55 = add nsw i32 %54, 1
  store i32 %55, ptr %15, align 4, !tbaa !3
  %56 = load i64, ptr %10, align 8, !tbaa !11
  %57 = load ptr, ptr %9, align 8, !tbaa !9
  %58 = getelementptr inbounds nuw i8, ptr %57, i64 %56
  store ptr %58, ptr %9, align 8, !tbaa !9
  %59 = load i64, ptr %12, align 8, !tbaa !11
  %60 = load ptr, ptr %11, align 8, !tbaa !18
  %61 = getelementptr inbounds nuw i16, ptr %60, i64 %59
  store ptr %61, ptr %11, align 8, !tbaa !18
  br label %21, !llvm.loop !127

62:                                               ; preds = %26
  ret void
}

; Function Attrs: mustprogress uwtable
define internal void @_ZN2cv12cpu_baselineL13cvtScale8s16uEPKhmS2_mPhmNS_5Size_IiEEPv(ptr noundef %0, i64 noundef %1, ptr noundef %2, i64 noundef %3, ptr noundef %4, i64 noundef %5, i64 %6, ptr noundef %7) #1 {
  %9 = alloca %"class.cv::Size_", align 4
  %10 = alloca ptr, align 8
  %11 = alloca i64, align 8
  %12 = alloca ptr, align 8
  %13 = alloca i64, align 8
  %14 = alloca ptr, align 8
  %15 = alloca i64, align 8
  %16 = alloca ptr, align 8
  %17 = alloca ptr, align 8
  %18 = alloca ptr, align 8
  %19 = alloca ptr, align 8
  %20 = alloca %"class.cv::Size_", align 4
  store i64 %6, ptr %9, align 4
  store ptr %0, ptr %10, align 8, !tbaa !9
  store i64 %1, ptr %11, align 8, !tbaa !11
  store ptr %2, ptr %12, align 8, !tbaa !9
  store i64 %3, ptr %13, align 8, !tbaa !11
  store ptr %4, ptr %14, align 8, !tbaa !9
  store i64 %5, ptr %15, align 8, !tbaa !11
  store ptr %7, ptr %16, align 8, !tbaa !7
  call void @llvm.lifetime.start.p0(i64 8, ptr %17) #17
  %21 = load ptr, ptr %10, align 8, !tbaa !9
  store ptr %21, ptr %17, align 8, !tbaa !9
  call void @llvm.lifetime.start.p0(i64 8, ptr %18) #17
  %22 = load ptr, ptr %14, align 8, !tbaa !9
  store ptr %22, ptr %18, align 8, !tbaa !18
  call void @llvm.lifetime.start.p0(i64 8, ptr %19) #17
  %23 = load ptr, ptr %16, align 8, !tbaa !7
  store ptr %23, ptr %19, align 8, !tbaa !13
  %24 = load ptr, ptr %17, align 8, !tbaa !9
  %25 = load i64, ptr %11, align 8, !tbaa !11
  %26 = load ptr, ptr %18, align 8, !tbaa !18
  %27 = load i64, ptr %15, align 8, !tbaa !11
  call void @llvm.memcpy.p0.p0.i64(ptr align 4 %20, ptr align 4 %9, i64 8, i1 false), !tbaa.struct !15
  %28 = load ptr, ptr %19, align 8, !tbaa !13
  %29 = getelementptr inbounds double, ptr %28, i64 0
  %30 = load double, ptr %29, align 8, !tbaa !16
  %31 = fptrunc double %30 to float
  %32 = load ptr, ptr %19, align 8, !tbaa !13
  %33 = getelementptr inbounds double, ptr %32, i64 1
  %34 = load double, ptr %33, align 8, !tbaa !16
  %35 = fptrunc double %34 to float
  %36 = load i64, ptr %20, align 4
  call void @_ZN2cv12cpu_baseline7cvt_32fIatEEvPKT_mPT0_mNS_5Size_IiEEff(ptr noundef %24, i64 noundef %25, ptr noundef %26, i64 noundef %27, i64 %36, float noundef %31, float noundef %35)
  call void @llvm.lifetime.end.p0(i64 8, ptr %19) #17
  call void @llvm.lifetime.end.p0(i64 8, ptr %18) #17
  call void @llvm.lifetime.end.p0(i64 8, ptr %17) #17
  ret void
}